target datalayout = "e-m:e-p270:32:32-p271:32:32-p272:64:64-i64:64-i128:128-f80:128-n8:16:32:64-S128"
target triple = "x86_64-pc-linux-gnu"

%struct.ScanTable = type { ptr, [64 x i8], [64 x i8] }
%struct.MpegEncContext = type { ptr, i32, i32, i32, [12 x i32], i32, %struct.ScanTable, %struct.ScanTable, [64 x i8], [64 x i8], ptr, ptr, i32, i32, i32, i32, i32, i32, i32, i32, i32, i32, i32, i32, i32, i32, i32, i32, i32, i32, i32, i32, i64, i64, ptr, %struct.BufferPoolContext, i32, i32, %union.anon, i32, %struct.MPVWorkPicture, %struct.MPVWorkPicture, %struct.MPVWorkPicture, i32, [3 x i32], ptr, [3 x ptr], ptr, ptr, ptr, ptr, ptr, ptr, [3 x ptr], i32, ptr, ptr, ptr, ptr, %struct.ScratchpadContext, i32, i32, i32, i32, i32, i32, %struct.BlockDSPContext, %struct.H264ChromaContext, %struct.HpelDSPContext, %struct.IDCTDSPContext, %struct.QpelDSPContext, %struct.VideoDSPContext, %struct.H263DSPContext, ptr, [2 x [2 x ptr]], i32, i32, [2 x [4 x [2 x i32]]], [2 x [2 x i32]], [2 x [2 x [2 x i32]]], [2 x [64 x i16]], i32, i32, i32, i32, i32, [6 x i32], [6 x i32], [3 x ptr], ptr, [64 x i16], [64 x i16], [64 x i16], [64 x i16], i32, i32, %struct.GetBitContext, i32, i32, i32, i32, i32, i32, i32, i32, i32, i32, i32, i32, i32, i32, i32, i64, i64, i16, i16, i16, i16, i32, i32, i32, i32, i32, i32, i32, i32, i32, [3 x i32], i32, i32, i32, i32, i32, i32, %struct.GetBitContext, i32, [2 x [2 x i32]], i32, i32, i32, i32, i32, i32, i32, i32, i32, i32, i32, i32, i32, i32, [2 x i32], i32, i32, ptr, ptr, ptr, ptr, ptr, i32, i32, %struct.ERContext }
%struct.BufferPoolContext = type { ptr, ptr, ptr, ptr, ptr, i32, i32, i32 }
%union.anon = type { [32 x ptr] }
%struct.MPVWorkPicture = type { [3 x ptr], [3 x i64], ptr, ptr, [2 x ptr], ptr, ptr, [2 x ptr], i32 }
%struct.ScratchpadContext = type { ptr, ptr, %union.anon.0, i32 }
%union.anon.0 = type { ptr }
%struct.BlockDSPContext = type { ptr, ptr, [2 x ptr] }
%struct.H264ChromaContext = type { [4 x ptr], [4 x ptr] }
%struct.HpelDSPContext = type { [4 x [4 x ptr]], [4 x [4 x ptr]], [4 x [4 x ptr]], [4 x ptr] }
%struct.IDCTDSPContext = type { ptr, ptr, ptr, ptr, ptr, ptr, [64 x i8], i32, i32 }
%struct.QpelDSPContext = type { [2 x [16 x ptr]], [2 x [16 x ptr]], [2 x [16 x ptr]] }
%struct.VideoDSPContext = type { ptr, ptr }
%struct.H263DSPContext = type { ptr, ptr }
%struct.GetBitContext = type { ptr, ptr, i32, i32, i32 }
%struct.ERContext = type { ptr, ptr, i32, ptr, i32, i32, i32, i64, i64, i32, i32, ptr, ptr, [3 x ptr], ptr, ptr, [2 x [4 x [2 x i32]]], %struct.ERPicture, %struct.ERPicture, %struct.ERPicture, [2 x ptr], [2 x ptr], i16, i16, i32, i32, ptr, ptr }
%struct.ERPicture = type { ptr, ptr, ptr, [2 x ptr], [2 x ptr], ptr, i32 }

; Function Attrs: nounwind uwtable
define void @ff_set_qscale(ptr noundef %0, i32 noundef %1) #3 {
  %3 = alloca ptr, align 8
  %4 = alloca i32, align 4
  store ptr %0, ptr %3, align 8, !tbaa !18
  store i32 %1, ptr %4, align 4, !tbaa !13
  %5 = load i32, ptr %4, align 4, !tbaa !13
  %6 = icmp slt i32 %5, 1
  br i1 %6, label %7, label %8

7:                                                ; preds = %2
  store i32 1, ptr %4, align 4, !tbaa !13
  br label %13

8:                                                ; preds = %2
  %9 = load i32, ptr %4, align 4, !tbaa !13
  %10 = icmp sgt i32 %9, 31
  br i1 %10, label %11, label %12

11:                                               ; preds = %8
  store i32 31, ptr %4, align 4, !tbaa !13
  br label %12

12:                                               ; preds = %11, %8
  br label %13

13:                                               ; preds = %12, %7
  %14 = load i32, ptr %4, align 4, !tbaa !13
  %15 = load ptr, ptr %3, align 8, !tbaa !18
  %16 = getelementptr inbounds nuw %struct.MpegEncContext, ptr %15, i32 0, i32 60
  store i32 %14, ptr %16, align 8, !tbaa !140
  %17 = load ptr, ptr %3, align 8, !tbaa !18
  %18 = getelementptr inbounds nuw %struct.MpegEncContext, ptr %17, i32 0, i32 49
  %19 = load ptr, ptr %18, align 8, !tbaa !68
  %20 = load i32, ptr %4, align 4, !tbaa !13
  %21 = sext i32 %20 to i64
  %22 = getelementptr inbounds i8, ptr %19, i64 %21
  %23 = load i8, ptr %22, align 1, !tbaa !15
  %24 = zext i8 %23 to i32
  %25 = load ptr, ptr %3, align 8, !tbaa !18
  %26 = getelementptr inbounds nuw %struct.MpegEncContext, ptr %25, i32 0, i32 61
  store i32 %24, ptr %26, align 4, !tbaa !141
  %27 = load ptr, ptr %3, align 8, !tbaa !18
  %28 = getelementptr inbounds nuw %struct.MpegEncContext, ptr %27, i32 0, i32 47
  %29 = load ptr, ptr %28, align 8, !tbaa !142
  %30 = load i32, ptr %4, align 4, !tbaa !13
  %31 = sext i32 %30 to i64
  %32 = getelementptr inbounds i8, ptr %29, i64 %31
  %33 = load i8, ptr %32, align 1, !tbaa !15
  %34 = zext i8 %33 to i32
  %35 = load ptr, ptr %3, align 8, !tbaa !18
  %36 = getelementptr inbounds nuw %struct.MpegEncContext, ptr %35, i32 0, i32 1
  store i32 %34, ptr %36, align 8, !tbaa !143
  %37 = load ptr, ptr %3, align 8, !tbaa !18
  %38 = getelementptr inbounds nuw %struct.MpegEncContext, ptr %37, i32 0, i32 48
  %39 = load ptr, ptr %38, align 8, !tbaa !144
  %40 = load ptr, ptr %3, align 8, !tbaa !18
  %41 = getelementptr inbounds nuw %struct.MpegEncContext, ptr %40, i32 0, i32 61
  %42 = load i32, ptr %41, align 4, !tbaa !141
  %43 = sext i32 %42 to i64
  %44 = getelementptr inbounds i8, ptr %39, i64 %43
  %45 = load i8, ptr %44, align 1, !tbaa !15
  %46 = zext i8 %45 to i32
  %47 = load ptr, ptr %3, align 8, !tbaa !18
  %48 = getelementptr inbounds nuw %struct.MpegEncContext, ptr %47, i32 0, i32 2
  store i32 %46, ptr %48, align 4, !tbaa !145
  ret void
}