; Function Attrs: mustprogress nofree norecurse nosync nounwind willreturn memory(read, argmem: readwrite, inaccessiblemem: none) uwtable
define void @ff_set_qscale(ptr noundef captures(none) initializes((8, 16), (1472, 1480)) %0, i32 noundef %1) local_unnamed_addr #9 {
  %3 = icmp slt i32 %1, 1
  %4 = tail call i32 @llvm.umin.i32(i32 %1, i32 31)
  %.0 = select i1 %3, i32 1, i32 %4
  %5 = getelementptr inbounds nuw i8, ptr %0, i64 1472
  store i32 %.0, ptr %5, align 8, !tbaa !131
  %6 = getelementptr inbounds nuw i8, ptr %0, i64 1344
  %7 = load ptr, ptr %6, align 8, !tbaa !63
  %8 = zext nneg i32 %.0 to i64
  %9 = getelementptr inbounds nuw i8, ptr %7, i64 %8
  %10 = load i8, ptr %9, align 1, !tbaa !10
  %11 = zext i8 %10 to i32
  %12 = getelementptr inbounds nuw i8, ptr %0, i64 1476
  store i32 %11, ptr %12, align 4, !tbaa !132
  %13 = getelementptr inbounds nuw i8, ptr %0, i64 1328
  %14 = load ptr, ptr %13, align 8, !tbaa !133
  %15 = getelementptr inbounds nuw i8, ptr %14, i64 %8
  %16 = load i8, ptr %15, align 1, !tbaa !10
  %17 = zext i8 %16 to i32
  %18 = getelementptr inbounds nuw i8, ptr %0, i64 8
  store i32 %17, ptr %18, align 8, !tbaa !134
  %19 = getelementptr inbounds nuw i8, ptr %0, i64 1336
  %20 = load ptr, ptr %19, align 8, !tbaa !135
  %21 = zext i8 %10 to i64
  %22 = getelementptr inbounds nuw i8, ptr %20, i64 %21
  %23 = load i8, ptr %22, align 1, !tbaa !10
  %24 = zext i8 %23 to i32
  %25 = getelementptr inbounds nuw i8, ptr %0, i64 12
  store i32 %24, ptr %25, align 4, !tbaa !136
  ret void
}